target datalayout = "e-m:e-p270:32:32-p271:32:32-p272:64:64-i64:64-i128:128-f80:128-n8:16:32:64-S128"
target triple = "x86_64-pc-linux-gnu"

@_ZL13log2_seg_size = internal global i32 0, align 4
@_ZL12granule_size = internal global i64 0, align 8
@.str.127 = private unnamed_addr constant [3 x i8] c"%c\00", align 1

; Function Attrs: mustprogress nounwind uwtable
define hidden void @_ZN13CodeHeapState18print_space_singleEP12outputStreamt(ptr noundef %0, i16 noundef zeroext %1) #1 align 2 {
  %3 = alloca ptr, align 8
  %4 = alloca i16, align 2
  %5 = alloca i64, align 8
  %6 = alloca i8, align 1
  store ptr %0, ptr %3, align 8
  store i16 %1, ptr %4, align 2
  %7 = load i16, ptr %4, align 2
  %8 = zext i16 %7 to i32
  %9 = load i32, ptr @_ZL13log2_seg_size, align 4
  %10 = shl i32 %8, %9
  %11 = zext i32 %10 to i64
  store i64 %11, ptr %5, align 8
  %12 = load i16, ptr %4, align 2
  %13 = zext i16 %12 to i32
  %14 = icmp eq i32 %13, 0
  br i1 %14, label %15, label %16

15:                                               ; preds = %2
  br label %31

16:                                               ; preds = %2
  %17 = load i64, ptr %5, align 8
  %18 = load i64, ptr @_ZL12granule_size, align 8
  %19 = sub i64 %18, 1
  %20 = icmp uge i64 %17, %19
  br i1 %20, label %21, label %22

21:                                               ; preds = %16
  br label %29

22:                                               ; preds = %16
  %23 = load i64, ptr %5, align 8
  %24 = mul i64 10, %23
  %25 = load i64, ptr @_ZL12granule_size, align 8
  %26 = udiv i64 %24, %25
  %27 = add i64 48, %26
  %28 = trunc i64 %27 to i8
  br label %29

29:                                               ; preds = %22, %21
  %30 = phi i8 [ 42, %21 ], [ %28, %22 ]
  br label %31

31:                                               ; preds = %29, %15
  %32 = phi i8 [ 32, %15 ], [ %30, %29 ]
  store i8 %32, ptr %6, align 1
  %33 = load ptr, ptr %3, align 8
  %34 = load i8, ptr %6, align 1
  %35 = sext i8 %34 to i32
  call void (ptr, ptr, ...) @_ZN12outputStream5printEPKcz(ptr noundef nonnull align 8 dereferenceable(56) %33, ptr noundef @.str.127, i32 noundef %35)
  ret void
}