; Function Attrs: mustprogress nounwind uwtable
define hidden void @_ZN13CodeHeapState18print_space_singleEP12outputStreamt(ptr noundef %0, i16 noundef zeroext %1) local_unnamed_addr #1 align 2 {
  %3 = zext i16 %1 to i32
  %4 = load i32, ptr @_ZL13log2_seg_size, align 4
  %5 = shl i32 %3, %4
  %6 = zext i32 %5 to i64
  %7 = icmp eq i16 %1, 0
  br i1 %7, label %17, label %8

8:                                                ; preds = %2
  %9 = load i64, ptr @_ZL12granule_size, align 8
  %10 = add i64 %9, -1
  %.not = icmp ugt i64 %10, %6
  br i1 %.not, label %11, label %17

11:                                               ; preds = %8
  %12 = mul nuw nsw i64 %6, 10
  %13 = udiv i64 %12, %9
  %14 = trunc i64 %13 to i32
  %15 = shl i32 %14, 24
  %sext = add i32 %15, 805306368
  %16 = ashr exact i32 %sext, 24
  br label %17

17:                                               ; preds = %11, %8, %2
  %18 = phi i32 [ 32, %2 ], [ %16, %11 ], [ 42, %8 ]
  tail call void (ptr, ptr, ...) @_ZN12outputStream5printEPKcz(ptr noundef nonnull align 8 dereferenceable(56) %0, ptr noundef nonnull @.str.127, i32 noundef %18) #12
  ret void
}